; Function Attrs: nounwind uwtable
define ptr @l_Fin_reduceBinPred(ptr noundef %0, ptr noundef %1, ptr noundef %2, ptr noundef %3, ptr noundef %4, ptr noundef %5, ptr noundef %6, ptr noundef %7, ptr noundef %8, ptr noundef %9, ptr noundef %10, ptr noundef %11) local_unnamed_addr #1 {
  %13 = tail call zeroext i8 @l_Lean_Expr_isAppOfArity(ptr noundef %3, ptr noundef %0, ptr noundef %1) #4
  %14 = icmp eq i8 %13, 0
  br i1 %14, label %15, label %77

15:                                               ; preds = %12
  %16 = ptrtoint ptr %10 to i64
  %17 = and i64 %16, 1
  %.not = icmp eq i64 %17, 0
  br i1 %.not, label %18, label %lean_dec.exit31

18:                                               ; preds = %15
  %19 = load i32, ptr %10, align 4, !tbaa !10
  %20 = icmp sgt i32 %19, 1
  br i1 %20, label %21, label %23, !prof !13

21:                                               ; preds = %18
  %22 = add nsw i32 %19, -1
  store i32 %22, ptr %10, align 4, !tbaa !10
  br label %lean_dec.exit31

23:                                               ; preds = %18
  %.not.i = icmp eq i32 %19, 0
  br i1 %.not.i, label %lean_dec.exit31, label %24

24:                                               ; preds = %23
  tail call void @lean_dec_ref_cold(ptr noundef nonnull %10) #4
  br label %lean_dec.exit31

lean_dec.exit31:                                  ; preds = %24, %23, %21, %15
  %25 = ptrtoint ptr %9 to i64
  %26 = and i64 %25, 1
  %.not42 = icmp eq i64 %26, 0
  br i1 %.not42, label %27, label %lean_dec.exit30

27:                                               ; preds = %lean_dec.exit31
  %28 = load i32, ptr %9, align 4, !tbaa !10
  %29 = icmp sgt i32 %28, 1
  br i1 %29, label %30, label %32, !prof !13

30:                                               ; preds = %27
  %31 = add nsw i32 %28, -1
  store i32 %31, ptr %9, align 4, !tbaa !10
  br label %lean_dec.exit30

32:                                               ; preds = %27
  %.not.i32 = icmp eq i32 %28, 0
  br i1 %.not.i32, label %lean_dec.exit30, label %33

33:                                               ; preds = %32
  tail call void @lean_dec_ref_cold(ptr noundef nonnull %9) #4
  br label %lean_dec.exit30

lean_dec.exit30:                                  ; preds = %33, %32, %30, %lean_dec.exit31
  %34 = ptrtoint ptr %8 to i64
  %35 = and i64 %34, 1
  %.not43 = icmp eq i64 %35, 0
  br i1 %.not43, label %36, label %lean_dec.exit29

36:                                               ; preds = %lean_dec.exit30
  %37 = load i32, ptr %8, align 4, !tbaa !10
  %38 = icmp sgt i32 %37, 1
  br i1 %38, label %39, label %41, !prof !13

39:                                               ; preds = %36
  %40 = add nsw i32 %37, -1
  store i32 %40, ptr %8, align 4, !tbaa !10
  br label %lean_dec.exit29

41:                                               ; preds = %36
  %.not.i34 = icmp eq i32 %37, 0
  br i1 %.not.i34, label %lean_dec.exit29, label %42

42:                                               ; preds = %41
  tail call void @lean_dec_ref_cold(ptr noundef nonnull %8) #4
  br label %lean_dec.exit29

lean_dec.exit29:                                  ; preds = %42, %41, %39, %lean_dec.exit30
  %43 = ptrtoint ptr %7 to i64
  %44 = and i64 %43, 1
  %.not44 = icmp eq i64 %44, 0
  br i1 %.not44, label %45, label %lean_dec.exit28

45:                                               ; preds = %lean_dec.exit29
  %46 = load i32, ptr %7, align 4, !tbaa !10
  %47 = icmp sgt i32 %46, 1
  br i1 %47, label %48, label %50, !prof !13

48:                                               ; preds = %45
  %49 = add nsw i32 %46, -1
  store i32 %49, ptr %7, align 4, !tbaa !10
  br label %lean_dec.exit28

50:                                               ; preds = %45
  %.not.i36 = icmp eq i32 %46, 0
  br i1 %.not.i36, label %lean_dec.exit28, label %51

51:                                               ; preds = %50
  tail call void @lean_dec_ref_cold(ptr noundef nonnull %7) #4
  br label %lean_dec.exit28

lean_dec.exit28:                                  ; preds = %51, %50, %48, %lean_dec.exit29
  %52 = ptrtoint ptr %3 to i64
  %53 = and i64 %52, 1
  %.not45 = icmp eq i64 %53, 0
  br i1 %.not45, label %54, label %lean_dec.exit27

54:                                               ; preds = %lean_dec.exit28
  %55 = load i32, ptr %3, align 4, !tbaa !10
  %56 = icmp sgt i32 %55, 1
  br i1 %56, label %57, label %59, !prof !13

57:                                               ; preds = %54
  %58 = add nsw i32 %55, -1
  store i32 %58, ptr %3, align 4, !tbaa !10
  br label %lean_dec.exit27

59:                                               ; preds = %54
  %.not.i38 = icmp eq i32 %55, 0
  br i1 %.not.i38, label %lean_dec.exit27, label %60

60:                                               ; preds = %59
  tail call void @lean_dec_ref_cold(ptr noundef nonnull %3) #4
  br label %lean_dec.exit27

lean_dec.exit27:                                  ; preds = %60, %59, %57, %lean_dec.exit28
  %61 = ptrtoint ptr %2 to i64
  %62 = and i64 %61, 1
  %.not46 = icmp eq i64 %62, 0
  br i1 %.not46, label %63, label %lean_dec.exit

63:                                               ; preds = %lean_dec.exit27
  %64 = load i32, ptr %2, align 4, !tbaa !10
  %65 = icmp sgt i32 %64, 1
  br i1 %65, label %66, label %68, !prof !13

66:                                               ; preds = %63
  %67 = add nsw i32 %64, -1
  store i32 %67, ptr %2, align 4, !tbaa !10
  br label %lean_dec.exit

68:                                               ; preds = %63
  %.not.i40 = icmp eq i32 %64, 0
  br i1 %.not.i40, label %lean_dec.exit, label %69

69:                                               ; preds = %68
  tail call void @lean_dec_ref_cold(ptr noundef nonnull %2) #4
  br label %lean_dec.exit

lean_dec.exit:                                    ; preds = %69, %68, %66, %lean_dec.exit27
  %70 = load ptr, ptr @l_Fin_reduceBinPred___lambda__1___closed__1, align 8, !tbaa !5
  tail call void @lean_inc_heartbeat() #4
  %71 = tail call noalias ptr @mi_malloc_small(i64 noundef 24) #4
  %72 = icmp eq ptr %71, null
  br i1 %72, label %73, label %lean_alloc_ctor.exit

73:                                               ; preds = %lean_dec.exit
  tail call void @lean_internal_panic_out_of_memory() #5
  unreachable

lean_alloc_ctor.exit:                             ; preds = %lean_dec.exit
  %74 = getelementptr inbounds nuw i8, ptr %71, i64 4
  store i32 1, ptr %71, align 4, !tbaa !10
  store i32 131096, ptr %74, align 4
  %75 = getelementptr inbounds nuw i8, ptr %71, i64 8
  store ptr %70, ptr %75, align 8, !tbaa !5
  %76 = getelementptr inbounds nuw i8, ptr %71, i64 16
  store ptr %11, ptr %76, align 8, !tbaa !5
  br label %79

77:                                               ; preds = %12
  %78 = tail call ptr @l_Fin_reduceBinPred___lambda__1(ptr noundef %3, ptr noundef %2, ptr nonnull poison, ptr noundef %4, ptr noundef %5, ptr noundef %6, ptr noundef %7, ptr noundef %8, ptr noundef %9, ptr noundef %10, ptr noundef %11)
  br label %79

79:                                               ; preds = %77, %lean_alloc_ctor.exit
  %.0 = phi ptr [ %71, %lean_alloc_ctor.exit ], [ %78, %77 ]
  ret ptr %.0
}